; ModuleID = '55/1159.cpp'
source_filename = "55/1159.cpp"
target datalayout = "e-m:e-p270:32:32-p271:32:32-p272:64:64-i64:64-f80:128-n8:16:32:64-S128"
target triple = "x86_64-pc-linux-gnu"

%"class.std::ios_base::Init" = type { i8 }
%"class.std::basic_istream" = type { i32 (...)**, i64, %"class.std::basic_ios" }
%"class.std::basic_ios" = type { %"class.std::ios_base", %"class.std::basic_ostream"*, i8, i8, %"class.std::basic_streambuf"*, %"class.std::ctype"*, %"class.std::num_put"*, %"class.std::num_get"* }
%"class.std::ios_base" = type { i32 (...)**, i64, i64, i32, i32, i32, %"struct.std::ios_base::_Callback_list"*, %"struct.std::ios_base::_Words", [8 x %"struct.std::ios_base::_Words"], i32, %"struct.std::ios_base::_Words"*, %"class.std::locale" }
%"struct.std::ios_base::_Callback_list" = type { %"struct.std::ios_base::_Callback_list"*, void (i32, %"class.std::ios_base"*, i32)*, i32, i32 }
%"struct.std::ios_base::_Words" = type { i8*, i64 }
%"class.std::locale" = type { %"class.std::locale::_Impl"* }
%"class.std::locale::_Impl" = type { i32, %"class.std::locale::facet"**, i64, %"class.std::locale::facet"**, i8** }
%"class.std::locale::facet" = type <{ i32 (...)**, i32, [4 x i8] }>
%"class.std::basic_ostream" = type { i32 (...)**, %"class.std::basic_ios" }
%"class.std::basic_streambuf" = type { i32 (...)**, i8*, i8*, i8*, i8*, i8*, i8*, %"class.std::locale" }
%"class.std::ctype" = type <{ %"class.std::locale::facet.base", [4 x i8], %struct.__locale_struct*, i8, [7 x i8], i32*, i32*, i16*, i8, [256 x i8], [256 x i8], i8, [6 x i8] }>
%"class.std::locale::facet.base" = type <{ i32 (...)**, i32 }>
%struct.__locale_struct = type { [13 x %struct.__locale_data*], i16*, i32*, i32*, [13 x i8*] }
%struct.__locale_data = type opaque
%"class.std::num_put" = type { %"class.std::locale::facet.base", [4 x i8] }
%"class.std::num_get" = type { %"class.std::locale::facet.base", [4 x i8] }

@_ZStL8__ioinit = internal global %"class.std::ios_base::Init" zeroinitializer, align 1
@__dso_handle = external hidden global i8
@_ZSt3cin = external dso_local global %"class.std::basic_istream", align 8
@_ZSt4cout = external dso_local global %"class.std::basic_ostream", align 8
@.str = private unnamed_addr constant [2 x i8] c"0\00", align 1
@llvm.global_ctors = appending global [1 x { i32, void ()*, i8* }] [{ i32, void ()*, i8* } { i32 65535, void ()* @_GLOBAL__sub_I_1159.cpp, i8* null }]

; Function Attrs: noinline uwtable
define internal void @__cxx_global_var_init() #0 section ".text.startup" {
  call void @_ZNSt8ios_base4InitC1Ev(%"class.std::ios_base::Init"* @_ZStL8__ioinit)
  %1 = call i32 @__cxa_atexit(void (i8*)* bitcast (void (%"class.std::ios_base::Init"*)* @_ZNSt8ios_base4InitD1Ev to void (i8*)*), i8* getelementptr inbounds (%"class.std::ios_base::Init", %"class.std::ios_base::Init"* @_ZStL8__ioinit, i32 0, i32 0), i8* @__dso_handle) #3
  ret void
}

declare dso_local void @_ZNSt8ios_base4InitC1Ev(%"class.std::ios_base::Init"*) unnamed_addr #1

; Function Attrs: nounwind
declare dso_local void @_ZNSt8ios_base4InitD1Ev(%"class.std::ios_base::Init"*) unnamed_addr #2

; Function Attrs: nounwind
declare dso_local i32 @__cxa_atexit(void (i8*)*, i8*, i8*) #3

; Function Attrs: noinline norecurse uwtable
define dso_local i32 @main() #4 {
  %1 = alloca i32, align 4
  %2 = alloca i32, align 4
  %3 = alloca i32, align 4
  %4 = alloca i32, align 4
  %5 = alloca i32, align 4
  %6 = alloca i32, align 4
  %7 = alloca i32, align 4
  %8 = alloca i32, align 4
  %9 = alloca [30 x i32], align 16
  store i32 0, i32* %1, align 4
  store i32 0, i32* %4, align 4
  store i32 0, i32* %5, align 4
  store i32 0, i32* %6, align 4
  store i32 0, i32* %7, align 4
  store i32 1, i32* %8, align 4
  %10 = call dereferenceable(280) %"class.std::basic_istream"* @_ZNSirsERi(%"class.std::basic_istream"* @_ZSt3cin, i32* dereferenceable(4) %2)
  %11 = call i32 @getchar()
  %12 = add nsw i32 %11, 1
  %13 = getelementptr inbounds [30 x i32], [30 x i32]* %9, i64 0, i64 0
  store i32 %12, i32* %13, align 16
  br label %14

14:                                               ; preds = %57, %0
  %15 = load i32, i32* %4, align 4
  %16 = sext i32 %15 to i64
  %17 = getelementptr inbounds [30 x i32], [30 x i32]* %9, i64 0, i64 %16
  %18 = load i32, i32* %17, align 4
  %19 = icmp ne i32 %18, -16
  br i1 %19, label %20, label %58

20:                                               ; preds = %14
  %21 = load i32, i32* %4, align 4
  %22 = add nsw i32 %21, 1
  store i32 %22, i32* %4, align 4
  %23 = call i32 @getchar()
  %24 = load i32, i32* %4, align 4
  %25 = sext i32 %24 to i64
  %26 = getelementptr inbounds [30 x i32], [30 x i32]* %9, i64 0, i64 %25
  store i32 %23, i32* %26, align 4
  %27 = load i32, i32* %4, align 4
  %28 = sext i32 %27 to i64
  %29 = getelementptr inbounds [30 x i32], [30 x i32]* %9, i64 0, i64 %28
  %30 = load i32, i32* %29, align 4
  %31 = icmp sgt i32 %30, 96
  br i1 %31, label %32, label %38

32:                                               ; preds = %20
  %33 = load i32, i32* %4, align 4
  %34 = sext i32 %33 to i64
  %35 = getelementptr inbounds [30 x i32], [30 x i32]* %9, i64 0, i64 %34
  %36 = load i32, i32* %35, align 4
  %37 = sub nsw i32 %36, 87
  store i32 %37, i32* %35, align 4
  br label %57

38:                                               ; preds = %20
  %39 = load i32, i32* %4, align 4
  %40 = sext i32 %39 to i64
  %41 = getelementptr inbounds [30 x i32], [30 x i32]* %9, i64 0, i64 %40
  %42 = load i32, i32* %41, align 4
  %43 = icmp sgt i32 %42, 64
  br i1 %43, label %44, label %50

44:                                               ; preds = %38
  %45 = load i32, i32* %4, align 4
  %46 = sext i32 %45 to i64
  %47 = getelementptr inbounds [30 x i32], [30 x i32]* %9, i64 0, i64 %46
  %48 = load i32, i32* %47, align 4
  %49 = sub nsw i32 %48, 55
  store i32 %49, i32* %47, align 4
  br label %56

50:                                               ; preds = %38
  %51 = load i32, i32* %4, align 4
  %52 = sext i32 %51 to i64
  %53 = getelementptr inbounds [30 x i32], [30 x i32]* %9, i64 0, i64 %52
  %54 = load i32, i32* %53, align 4
  %55 = sub nsw i32 %54, 48
  store i32 %55, i32* %53, align 4
  br label %56

56:                                               ; preds = %50, %44
  br label %57

57:                                               ; preds = %56, %32
  br label %14

58:                                               ; preds = %14
  %59 = getelementptr inbounds [30 x i32], [30 x i32]* %9, i64 0, i64 1
  %60 = load i32, i32* %59, align 4
  %61 = icmp eq i32 %60, 0
  br i1 %61, label %62, label %64

62:                                               ; preds = %58
  %63 = call dereferenceable(272) %"class.std::basic_ostream"* @_ZStlsISt11char_traitsIcEERSt13basic_ostreamIcT_ES5_PKc(%"class.std::basic_ostream"* dereferenceable(272) @_ZSt4cout, i8* getelementptr inbounds ([2 x i8], [2 x i8]* @.str, i64 0, i64 0))
  br label %135

64:                                               ; preds = %58
  %65 = load i32, i32* %4, align 4
  %66 = sub nsw i32 %65, 1
  store i32 %66, i32* %5, align 4
  br label %67

67:                                               ; preds = %82, %64
  %68 = load i32, i32* %5, align 4
  %69 = icmp sge i32 %68, 1
  br i1 %69, label %70, label %85

70:                                               ; preds = %67
  %71 = load i32, i32* %5, align 4
  %72 = sext i32 %71 to i64
  %73 = getelementptr inbounds [30 x i32], [30 x i32]* %9, i64 0, i64 %72
  %74 = load i32, i32* %73, align 4
  %75 = load i32, i32* %8, align 4
  %76 = mul nsw i32 %74, %75
  %77 = load i32, i32* %7, align 4
  %78 = add nsw i32 %77, %76
  store i32 %78, i32* %7, align 4
  %79 = load i32, i32* %8, align 4
  %80 = load i32, i32* %2, align 4
  %81 = mul nsw i32 %79, %80
  store i32 %81, i32* %8, align 4
  br label %82

82:                                               ; preds = %70
  %83 = load i32, i32* %5, align 4
  %84 = add nsw i32 %83, -1
  store i32 %84, i32* %5, align 4
  br label %67

85:                                               ; preds = %67
  %86 = call dereferenceable(280) %"class.std::basic_istream"* @_ZNSirsERi(%"class.std::basic_istream"* @_ZSt3cin, i32* dereferenceable(4) %3)
  store i32 0, i32* %4, align 4
  br label %87

87:                                               ; preds = %119, %85
  %88 = load i32, i32* %7, align 4
  %89 = icmp sgt i32 %88, 0
  br i1 %89, label %90, label %120

90:                                               ; preds = %87
  %91 = load i32, i32* %4, align 4
  %92 = add nsw i32 %91, 1
  store i32 %92, i32* %4, align 4
  %93 = load i32, i32* %7, align 4
  %94 = load i32, i32* %3, align 4
  %95 = srem i32 %93, %94
  %96 = load i32, i32* %4, align 4
  %97 = sext i32 %96 to i64
  %98 = getelementptr inbounds [30 x i32], [30 x i32]* %9, i64 0, i64 %97
  store i32 %95, i32* %98, align 4
  %99 = load i32, i32* %7, align 4
  %100 = load i32, i32* %3, align 4
  %101 = sdiv i32 %99, %100
  store i32 %101, i32* %7, align 4
  %102 = load i32, i32* %4, align 4
  %103 = sext i32 %102 to i64
  %104 = getelementptr inbounds [30 x i32], [30 x i32]* %9, i64 0, i64 %103
  %105 = load i32, i32* %104, align 4
  %106 = icmp slt i32 %105, 10
  br i1 %106, label %107, label %113

107:                                              ; preds = %90
  %108 = load i32, i32* %4, align 4
  %109 = sext i32 %108 to i64
  %110 = getelementptr inbounds [30 x i32], [30 x i32]* %9, i64 0, i64 %109
  %111 = load i32, i32* %110, align 4
  %112 = add nsw i32 %111, 48
  store i32 %112, i32* %110, align 4
  br label %119

113:                                              ; preds = %90
  %114 = load i32, i32* %4, align 4
  %115 = sext i32 %114 to i64
  %116 = getelementptr inbounds [30 x i32], [30 x i32]* %9, i64 0, i64 %115
  %117 = load i32, i32* %116, align 4
  %118 = add nsw i32 %117, 55
  store i32 %118, i32* %116, align 4
  br label %119

119:                                              ; preds = %113, %107
  br label %87

120:                                              ; preds = %87
  %121 = load i32, i32* %4, align 4
  store i32 %121, i32* %6, align 4
  br label %122

122:                                              ; preds = %131, %120
  %123 = load i32, i32* %6, align 4
  %124 = icmp sgt i32 %123, 0
  br i1 %124, label %125, label %134

125:                                              ; preds = %122
  %126 = load i32, i32* %6, align 4
  %127 = sext i32 %126 to i64
  %128 = getelementptr inbounds [30 x i32], [30 x i32]* %9, i64 0, i64 %127
  %129 = load i32, i32* %128, align 4
  %130 = call i32 @putchar(i32 %129)
  br label %131

131:                                              ; preds = %125
  %132 = load i32, i32* %6, align 4
  %133 = add nsw i32 %132, -1
  store i32 %133, i32* %6, align 4
  br label %122

134:                                              ; preds = %122
  br label %135

135:                                              ; preds = %134, %62
  ret i32 0
}

declare dso_local dereferenceable(280) %"class.std::basic_istream"* @_ZNSirsERi(%"class.std::basic_istream"*, i32* dereferenceable(4)) #1

declare dso_local i32 @getchar() #1

declare dso_local dereferenceable(272) %"class.std::basic_ostream"* @_ZStlsISt11char_traitsIcEERSt13basic_ostreamIcT_ES5_PKc(%"class.std::basic_ostream"* dereferenceable(272), i8*) #1

declare dso_local i32 @putchar(i32) #1

; Function Attrs: noinline uwtable
define internal void @_GLOBAL__sub_I_1159.cpp() #0 section ".text.startup" {
  call void @__cxx_global_var_init()
  ret void
}


!llvm.module.flags = !{!0}
!llvm.ident = !{!1}

!0 = !{i32 1, !"wchar_size", i32 4}
!1 = !{!"clang version 10.0.0-4ubuntu1 "}
